target datalayout = "e-m:e-p270:32:32-p271:32:32-p272:64:64-i64:64-i128:128-f80:128-n8:16:32:64-S128"
target triple = "x86_64-pc-linux-gnu"

%struct.SurfaceDataRasInfo = type { %struct.SurfaceDataBounds, ptr, i32, i32, i32, i32, ptr, ptr, ptr, ptr, ptr, ptr, i32, %union.anon.0 }
%struct.SurfaceDataBounds = type { i32, i32, i32, i32 }
%union.anon.0 = type { ptr, [56 x i8] }

; Function Attrs: nounwind uwtable
define hidden void @IntArgbBmToByteGrayXparOver(ptr noundef %0, ptr noundef %1, i32 noundef %2, i32 noundef %3, ptr noundef %4, ptr noundef %5, ptr noundef %6, ptr noundef %7) #1 {
  %9 = alloca ptr, align 8
  %10 = alloca ptr, align 8
  %11 = alloca i32, align 4
  %12 = alloca i32, align 4
  %13 = alloca ptr, align 8
  %14 = alloca ptr, align 8
  %15 = alloca ptr, align 8
  %16 = alloca ptr, align 8
  %17 = alloca ptr, align 8
  %18 = alloca ptr, align 8
  %19 = alloca i32, align 4
  %20 = alloca i32, align 4
  %21 = alloca i32, align 4
  %22 = alloca i32, align 4
  %23 = alloca i32, align 4
  %24 = alloca i32, align 4
  %25 = alloca i32, align 4
  %26 = alloca i32, align 4
  store ptr %0, ptr %9, align 8
  store ptr %1, ptr %10, align 8
  store i32 %2, ptr %11, align 4
  store i32 %3, ptr %12, align 4
  store ptr %4, ptr %13, align 8
  store ptr %5, ptr %14, align 8
  store ptr %6, ptr %15, align 8
  store ptr %7, ptr %16, align 8
  br label %27

27:                                               ; preds = %8
  %28 = load ptr, ptr %9, align 8
  store ptr %28, ptr %17, align 8
  %29 = load ptr, ptr %10, align 8
  store ptr %29, ptr %18, align 8
  %30 = load ptr, ptr %13, align 8
  %31 = getelementptr inbounds %struct.SurfaceDataRasInfo, ptr %30, i32 0, i32 4
  %32 = load i32, ptr %31, align 8
  store i32 %32, ptr %19, align 4
  %33 = load ptr, ptr %14, align 8
  %34 = getelementptr inbounds %struct.SurfaceDataRasInfo, ptr %33, i32 0, i32 4
  %35 = load i32, ptr %34, align 8
  store i32 %35, ptr %20, align 4
  %36 = load i32, ptr %11, align 4
  %37 = mul i32 %36, 4
  %38 = load i32, ptr %19, align 4
  %39 = sub i32 %38, %37
  store i32 %39, ptr %19, align 4
  %40 = load i32, ptr %11, align 4
  %41 = mul i32 %40, 1
  %42 = load i32, ptr %20, align 4
  %43 = sub i32 %42, %41
  store i32 %43, ptr %20, align 4
  br label %44

44:                                               ; preds = %108, %27
  %45 = load i32, ptr %11, align 4
  store i32 %45, ptr %21, align 4
  br label %46

46:                                               ; preds = %91, %44
  br label %47

47:                                               ; preds = %46
  %48 = load ptr, ptr %17, align 8
  %49 = getelementptr inbounds i32, ptr %48, i64 0
  %50 = load i32, ptr %49, align 4
  store i32 %50, ptr %22, align 4
  %51 = load i32, ptr %22, align 4
  %52 = ashr i32 %51, 24
  %53 = icmp eq i32 %52, 0
  br i1 %53, label %81, label %54

54:                                               ; preds = %47
  %55 = load i32, ptr %22, align 4
  store i32 %55, ptr %23, align 4
  br label %56

56:                                               ; preds = %54
  br label %57

57:                                               ; preds = %56
  %58 = load i32, ptr %23, align 4
  %59 = and i32 %58, 255
  store i32 %59, ptr %26, align 4
  %60 = load i32, ptr %23, align 4
  %61 = ashr i32 %60, 8
  %62 = and i32 %61, 255
  store i32 %62, ptr %25, align 4
  %63 = load i32, ptr %23, align 4
  %64 = ashr i32 %63, 16
  %65 = and i32 %64, 255
  store i32 %65, ptr %24, align 4
  br label %66

66:                                               ; preds = %57
  %67 = load i32, ptr %24, align 4
  %68 = mul nsw i32 77, %67
  %69 = load i32, ptr %25, align 4
  %70 = mul nsw i32 150, %69
  %71 = add nsw i32 %68, %70
  %72 = load i32, ptr %26, align 4
  %73 = mul nsw i32 29, %72
  %74 = add nsw i32 %71, %73
  %75 = add nsw i32 %74, 128
  %76 = sdiv i32 %75, 256
  %77 = trunc i32 %76 to i8
  %78 = load ptr, ptr %18, align 8
  %79 = getelementptr inbounds i8, ptr %78, i64 0
  store i8 %77, ptr %79, align 1
  br label %80

80:                                               ; preds = %66
  br label %81

81:                                               ; preds = %80, %47
  br label %82

82:                                               ; preds = %81
  %83 = load ptr, ptr %17, align 8
  %84 = ptrtoint ptr %83 to i64
  %85 = add nsw i64 %84, 4
  %86 = inttoptr i64 %85 to ptr
  store ptr %86, ptr %17, align 8
  %87 = load ptr, ptr %18, align 8
  %88 = ptrtoint ptr %87 to i64
  %89 = add nsw i64 %88, 1
  %90 = inttoptr i64 %89 to ptr
  store ptr %90, ptr %18, align 8
  br label %91

91:                                               ; preds = %82
  %92 = load i32, ptr %21, align 4
  %93 = add i32 %92, -1
  store i32 %93, ptr %21, align 4
  %94 = icmp ugt i32 %93, 0
  br i1 %94, label %46, label %95, !llvm.loop !53

95:                                               ; preds = %91
  %96 = load ptr, ptr %17, align 8
  %97 = ptrtoint ptr %96 to i64
  %98 = load i32, ptr %19, align 4
  %99 = sext i32 %98 to i64
  %100 = add nsw i64 %97, %99
  %101 = inttoptr i64 %100 to ptr
  store ptr %101, ptr %17, align 8
  %102 = load ptr, ptr %18, align 8
  %103 = ptrtoint ptr %102 to i64
  %104 = load i32, ptr %20, align 4
  %105 = sext i32 %104 to i64
  %106 = add nsw i64 %103, %105
  %107 = inttoptr i64 %106 to ptr
  store ptr %107, ptr %18, align 8
  br label %108

108:                                              ; preds = %95
  %109 = load i32, ptr %12, align 4
  %110 = add i32 %109, -1
  store i32 %110, ptr %12, align 4
  %111 = icmp ugt i32 %110, 0
  br i1 %111, label %44, label %112, !llvm.loop !54

112:                                              ; preds = %108
  br label %113

113:                                              ; preds = %112
  ret void
}