; Function Attrs: nofree norecurse nosync nounwind memory(readwrite, inaccessiblemem: none) uwtable
define hidden void @IntArgbBmToByteGrayXparOver(ptr noundef %0, ptr noundef %1, i32 noundef %2, i32 noundef %3, ptr nocapture noundef readonly %4, ptr nocapture noundef readonly %5, ptr nocapture readnone %6, ptr nocapture readnone %7) #1 {
  %9 = getelementptr inbounds i8, ptr %4, i64 32
  %10 = load i32, ptr %9, align 8
  %11 = getelementptr inbounds i8, ptr %5, i64 32
  %12 = load i32, ptr %11, align 8
  %13 = shl i32 %2, 2
  %14 = sub i32 %10, %13
  %15 = sub i32 %12, %2
  %16 = sext i32 %14 to i64
  %17 = sext i32 %15 to i64
  br label %18

18:                                               ; preds = %44, %8
  %.027 = phi ptr [ %1, %8 ], [ %48, %44 ]
  %.026 = phi ptr [ %0, %8 ], [ %46, %44 ]
  %.0 = phi i32 [ %3, %8 ], [ %49, %44 ]
  br label %19

19:                                               ; preds = %36, %18
  %.029 = phi i32 [ %2, %18 ], [ %43, %36 ]
  %.128 = phi ptr [ %.027, %18 ], [ %42, %36 ]
  %.1 = phi ptr [ %.026, %18 ], [ %39, %36 ]
  %20 = load i32, ptr %.1, align 4
  %21 = icmp ult i32 %20, 16777216
  br i1 %21, label %36, label %22

22:                                               ; preds = %19
  %23 = and i32 %20, 255
  %24 = lshr i32 %20, 8
  %25 = and i32 %24, 255
  %26 = lshr i32 %20, 16
  %27 = and i32 %26, 255
  %28 = mul nuw nsw i32 %27, 77
  %29 = mul nuw nsw i32 %25, 150
  %30 = mul nuw nsw i32 %23, 29
  %31 = add nuw nsw i32 %30, 128
  %32 = add nuw nsw i32 %31, %29
  %33 = add nuw nsw i32 %32, %28
  %34 = lshr i32 %33, 8
  %35 = trunc nuw i32 %34 to i8
  store i8 %35, ptr %.128, align 1
  br label %36

36:                                               ; preds = %19, %22
  %37 = ptrtoint ptr %.1 to i64
  %38 = add nsw i64 %37, 4
  %39 = inttoptr i64 %38 to ptr
  %40 = ptrtoint ptr %.128 to i64
  %41 = add nsw i64 %40, 1
  %42 = inttoptr i64 %41 to ptr
  %43 = add i32 %.029, -1
  %.not = icmp eq i32 %43, 0
  br i1 %.not, label %44, label %19, !llvm.loop !49

44:                                               ; preds = %36
  %45 = add nsw i64 %38, %16
  %46 = inttoptr i64 %45 to ptr
  %47 = add nsw i64 %41, %17
  %48 = inttoptr i64 %47 to ptr
  %49 = add i32 %.0, -1
  %.not32 = icmp eq i32 %49, 0
  br i1 %.not32, label %50, label %18, !llvm.loop !50

50:                                               ; preds = %44
  ret void
}